; Function Attrs: nounwind uwtable
define noalias nonnull ptr @l_Lean_PersistentHashMap_foldlM___at_Lean_SMap_fold___spec__2___boxed(ptr noundef readnone captures(none) %0, ptr noundef readnone captures(none) %1, ptr noundef %2, ptr noundef %3, ptr noundef readnone captures(none) %4) local_unnamed_addr #0 {
  tail call void @lean_inc_heartbeat() #3
  %6 = tail call noalias ptr @mi_malloc_small(i64 noundef 24) #3
  %7 = icmp eq ptr %6, null
  br i1 %7, label %8, label %l_Lean_PersistentHashMap_foldlM___at_Lean_SMap_fold___spec__2.exit

8:                                                ; preds = %5
  tail call void @lean_internal_panic_out_of_memory() #4
  unreachable

l_Lean_PersistentHashMap_foldlM___at_Lean_SMap_fold___spec__2.exit: ; preds = %5
  %9 = getelementptr inbounds nuw i8, ptr %6, i64 4
  store i32 1, ptr %6, align 4, !tbaa !10
  store i32 -184549352, ptr %9, align 4
  %10 = getelementptr inbounds nuw i8, ptr %6, i64 8
  store ptr @l_Lean_PersistentHashMap_foldlM___at_Lean_SMap_fold___spec__2___rarg___boxed, ptr %10, align 8, !tbaa !4
  %11 = getelementptr inbounds nuw i8, ptr %6, i64 16
  store i16 3, ptr %11, align 8, !tbaa !13
  %12 = getelementptr inbounds nuw i8, ptr %6, i64 18
  store i16 0, ptr %12, align 2, !tbaa !13
  %13 = ptrtoint ptr %3 to i64
  %14 = and i64 %13, 1
  %.not = icmp eq i64 %14, 0
  br i1 %.not, label %15, label %lean_dec.exit8

15:                                               ; preds = %l_Lean_PersistentHashMap_foldlM___at_Lean_SMap_fold___spec__2.exit
  %16 = load i32, ptr %3, align 4, !tbaa !10
  %17 = icmp sgt i32 %16, 1
  br i1 %17, label %18, label %20, !prof !15

18:                                               ; preds = %15
  %19 = add nsw i32 %16, -1
  store i32 %19, ptr %3, align 4, !tbaa !10
  br label %lean_dec.exit8

20:                                               ; preds = %15
  %.not.i = icmp eq i32 %16, 0
  br i1 %.not.i, label %lean_dec.exit8, label %21

21:                                               ; preds = %20
  tail call void @lean_dec_ref_cold(ptr noundef nonnull %3) #3
  br label %lean_dec.exit8

lean_dec.exit8:                                   ; preds = %21, %20, %18, %l_Lean_PersistentHashMap_foldlM___at_Lean_SMap_fold___spec__2.exit
  %22 = ptrtoint ptr %2 to i64
  %23 = and i64 %22, 1
  %.not11 = icmp eq i64 %23, 0
  br i1 %.not11, label %24, label %lean_dec.exit

24:                                               ; preds = %lean_dec.exit8
  %25 = load i32, ptr %2, align 4, !tbaa !10
  %26 = icmp sgt i32 %25, 1
  br i1 %26, label %27, label %29, !prof !15

27:                                               ; preds = %24
  %28 = add nsw i32 %25, -1
  store i32 %28, ptr %2, align 4, !tbaa !10
  br label %lean_dec.exit

29:                                               ; preds = %24
  %.not.i9 = icmp eq i32 %25, 0
  br i1 %.not.i9, label %lean_dec.exit, label %30

30:                                               ; preds = %29
  tail call void @lean_dec_ref_cold(ptr noundef nonnull %2) #3
  br label %lean_dec.exit

lean_dec.exit:                                    ; preds = %30, %29, %27, %lean_dec.exit8
  ret ptr %6
}